target datalayout = "e-m:e-p270:32:32-p271:32:32-p272:64:64-i64:64-i128:128-f80:128-n8:16:32:64-S128"
target triple = "x86_64-pc-linux-gnu"

%class.Register = type { i32 }
%class.XMMRegister = type { i32 }
%class.RelocationHolder = type { [40 x i8] }
%class.MachNode = type { %class.Node.base, i8, i16, ptr }
%class.Node.base = type <{ ptr, ptr, ptr, i32, i32, i32, i32, i32, i32, i32 }>
%class.Address = type { %class.Register, %class.Register, %class.XMMRegister, i32, i32, i8, [3 x i8], %class.RelocationHolder }
%class.compareAndSwapN_0Node = type { %class.MachNode, [4 x ptr] }

@_ZL5noreg = internal constant %class.Register { i32 -1 }, align 4

; Function Attrs: mustprogress nounwind uwtable
define linkonce_odr hidden void @_ZN8RegisterC2Eib(ptr noundef nonnull align 4 dereferenceable(4) %0, i32 noundef %1, i1 noundef zeroext %2) unnamed_addr #1 comdat align 2 {
  %4 = alloca ptr, align 8
  %5 = alloca i32, align 4
  %6 = alloca i8, align 1
  store ptr %0, ptr %4, align 8
  store i32 %1, ptr %5, align 4
  %7 = zext i1 %2 to i8
  store i8 %7, ptr %6, align 1
  %8 = load ptr, ptr %4, align 8
  %9 = getelementptr inbounds %class.Register, ptr %8, i32 0, i32 0
  %10 = load i32, ptr %5, align 4
  store i32 %10, ptr %9, align 4
  ret void
}

; Function Attrs: mustprogress nounwind uwtable
define linkonce_odr hidden i32 @_Z11as_Registeri(i32 noundef %0) #1 comdat {
  %2 = alloca %class.Register, align 4
  %3 = alloca i32, align 4
  store i32 %0, ptr %3, align 4
  %4 = load i32, ptr %3, align 4
  %5 = icmp sle i32 0, %4
  br i1 %5, label %6, label %11

6:                                                ; preds = %1
  %7 = load i32, ptr %3, align 4
  %8 = icmp slt i32 %7, 32
  br i1 %8, label %9, label %11

9:                                                ; preds = %6
  %10 = load i32, ptr %3, align 4
  call void @_ZN8RegisterC2Eib(ptr noundef nonnull align 4 dereferenceable(4) %2, i32 noundef %10, i1 noundef zeroext false)
  br label %12

11:                                               ; preds = %6, %1
  call void @llvm.memcpy.p0.p0.i64(ptr align 4 %2, ptr align 4 @_ZL5noreg, i64 4, i1 false)
  br label %12

12:                                               ; preds = %11, %9
  %13 = getelementptr inbounds %class.Register, ptr %2, i32 0, i32 0
  %14 = load i32, ptr %13, align 4
  ret i32 %14
}

; Function Attrs: mustprogress nounwind uwtable
define linkonce_odr hidden i32 @_ZNK8MachOper11as_RegisterEP13PhaseRegAllocPK4Node(ptr noundef nonnull align 8 dereferenceable(8) %0, ptr noundef %1, ptr noundef %2) #1 comdat align 2 {
  %4 = alloca %class.Register, align 4
  %5 = alloca ptr, align 8
  %6 = alloca ptr, align 8
  %7 = alloca ptr, align 8
  store ptr %0, ptr %5, align 8
  store ptr %1, ptr %6, align 8
  store ptr %2, ptr %7, align 8
  %8 = load ptr, ptr %5, align 8
  %9 = load ptr, ptr %6, align 8
  %10 = load ptr, ptr %7, align 8
  %11 = load ptr, ptr %8, align 8
  %12 = getelementptr inbounds ptr, ptr %11, i64 4
  %13 = load ptr, ptr %12, align 8
  %14 = call noundef i32 %13(ptr noundef nonnull align 8 dereferenceable(8) %8, ptr noundef %9, ptr noundef %10)
  %15 = call i32 @_Z11as_Registeri(i32 noundef %14)
  %16 = getelementptr inbounds %class.Register, ptr %4, i32 0, i32 0
  store i32 %15, ptr %16, align 4
  %17 = getelementptr inbounds %class.Register, ptr %4, i32 0, i32 0
  %18 = load i32, ptr %17, align 4
  ret i32 %18
}

; Function Attrs: mustprogress nounwind uwtable
define linkonce_odr hidden i32 @_ZNK8MachOper11as_RegisterEP13PhaseRegAllocPK4Nodei(ptr noundef nonnull align 8 dereferenceable(8) %0, ptr noundef %1, ptr noundef %2, i32 noundef %3) #1 comdat align 2 {
  %5 = alloca %class.Register, align 4
  %6 = alloca ptr, align 8
  %7 = alloca ptr, align 8
  %8 = alloca ptr, align 8
  %9 = alloca i32, align 4
  store ptr %0, ptr %6, align 8
  store ptr %1, ptr %7, align 8
  store ptr %2, ptr %8, align 8
  store i32 %3, ptr %9, align 4
  %10 = load ptr, ptr %6, align 8
  %11 = load ptr, ptr %7, align 8
  %12 = load ptr, ptr %8, align 8
  %13 = load i32, ptr %9, align 4
  %14 = load ptr, ptr %10, align 8
  %15 = getelementptr inbounds ptr, ptr %14, i64 5
  %16 = load ptr, ptr %15, align 8
  %17 = call noundef i32 %16(ptr noundef nonnull align 8 dereferenceable(8) %10, ptr noundef %11, ptr noundef %12, i32 noundef %13)
  %18 = call i32 @_Z11as_Registeri(i32 noundef %17)
  %19 = getelementptr inbounds %class.Register, ptr %5, i32 0, i32 0
  store i32 %18, ptr %19, align 4
  %20 = getelementptr inbounds %class.Register, ptr %5, i32 0, i32 0
  %21 = load i32, ptr %20, align 4
  ret i32 %21
}

; Function Attrs: mustprogress nounwind uwtable
define linkonce_odr hidden noundef ptr @_ZNK21compareAndSwapN_0Node10opnd_arrayEj(ptr noundef nonnull align 8 dereferenceable(96) %0, i32 noundef %1) #1 comdat align 2 {
  %3 = alloca ptr, align 8
  %4 = alloca i32, align 4
  store ptr %0, ptr %3, align 8
  store i32 %1, ptr %4, align 4
  %5 = load ptr, ptr %3, align 8
  %6 = getelementptr inbounds %class.compareAndSwapN_0Node, ptr %5, i32 0, i32 1
  %7 = load i32, ptr %4, align 4
  %8 = zext i32 %7 to i64
  %9 = getelementptr inbounds [4 x ptr], ptr %6, i64 0, i64 %8
  %10 = load ptr, ptr %9, align 8
  ret ptr %10
}

; Function Attrs: mustprogress nounwind uwtable
define hidden void @_ZNK21compareAndSwapN_0Node4emitEP17C2_MacroAssemblerP13PhaseRegAlloc(ptr noundef nonnull align 8 dereferenceable(96) %0, ptr noundef %1, ptr noundef %2) unnamed_addr #1 align 2 {
  %4 = alloca ptr, align 8
  %5 = alloca ptr, align 8
  %6 = alloca ptr, align 8
  %7 = alloca i32, align 4
  %8 = alloca i32, align 4
  %9 = alloca i32, align 4
  %10 = alloca i32, align 4
  %11 = alloca %class.Register, align 4
  %12 = alloca %class.Address, align 8
  %13 = alloca %class.Register, align 4
  %14 = alloca %class.Register, align 4
  %15 = alloca %class.Register, align 4
  store ptr %0, ptr %4, align 8
  store ptr %1, ptr %5, align 8
  store ptr %2, ptr %6, align 8
  %16 = load ptr, ptr %4, align 8
  store i32 2, ptr %7, align 4
  store i32 2, ptr %8, align 4
  %17 = load i32, ptr %8, align 4
  %18 = call noundef ptr @_ZNK21compareAndSwapN_0Node10opnd_arrayEj(ptr noundef nonnull align 8 dereferenceable(96) %16, i32 noundef 1)
  %19 = load ptr, ptr %18, align 8
  %20 = getelementptr inbounds ptr, ptr %19, i64 1
  %21 = load ptr, ptr %20, align 8
  %22 = call noundef i32 %21(ptr noundef nonnull align 8 dereferenceable(8) %18)
  %23 = add i32 %17, %22
  store i32 %23, ptr %9, align 4
  %24 = load i32, ptr %9, align 4
  %25 = call noundef ptr @_ZNK21compareAndSwapN_0Node10opnd_arrayEj(ptr noundef nonnull align 8 dereferenceable(96) %16, i32 noundef 2)
  %26 = load ptr, ptr %25, align 8
  %27 = getelementptr inbounds ptr, ptr %26, i64 1
  %28 = load ptr, ptr %27, align 8
  %29 = call noundef i32 %28(ptr noundef nonnull align 8 dereferenceable(8) %25)
  %30 = add i32 %24, %29
  store i32 %30, ptr %10, align 4
  %31 = load ptr, ptr %5, align 8
  call void @_ZN9Assembler4lockEv(ptr noundef nonnull align 8 dereferenceable(40) %31)
  %32 = load ptr, ptr %5, align 8
  %33 = call noundef ptr @_ZNK21compareAndSwapN_0Node10opnd_arrayEj(ptr noundef nonnull align 8 dereferenceable(96) %16, i32 noundef 3)
  %34 = load ptr, ptr %6, align 8
  %35 = load i32, ptr %10, align 4
  %36 = call i32 @_ZNK8MachOper11as_RegisterEP13PhaseRegAllocPK4Nodei(ptr noundef nonnull align 8 dereferenceable(8) %33, ptr noundef %34, ptr noundef %16, i32 noundef %35)
  %37 = getelementptr inbounds %class.Register, ptr %11, i32 0, i32 0
  store i32 %36, ptr %37, align 4
  %38 = call noundef ptr @_ZNK21compareAndSwapN_0Node10opnd_arrayEj(ptr noundef nonnull align 8 dereferenceable(96) %16, i32 noundef 1)
  %39 = load ptr, ptr %6, align 8
  %40 = load i32, ptr %8, align 4
  %41 = load ptr, ptr %38, align 8
  %42 = getelementptr inbounds ptr, ptr %41, i64 13
  %43 = load ptr, ptr %42, align 8
  %44 = call noundef i32 %43(ptr noundef nonnull align 8 dereferenceable(8) %38, ptr noundef %39, ptr noundef %16, i32 noundef %40)
  %45 = call noundef ptr @_ZNK21compareAndSwapN_0Node10opnd_arrayEj(ptr noundef nonnull align 8 dereferenceable(96) %16, i32 noundef 1)
  %46 = load ptr, ptr %6, align 8
  %47 = load i32, ptr %8, align 4
  %48 = load ptr, ptr %45, align 8
  %49 = getelementptr inbounds ptr, ptr %48, i64 14
  %50 = load ptr, ptr %49, align 8
  %51 = call noundef i32 %50(ptr noundef nonnull align 8 dereferenceable(8) %45, ptr noundef %46, ptr noundef %16, i32 noundef %47)
  %52 = call noundef ptr @_ZNK21compareAndSwapN_0Node10opnd_arrayEj(ptr noundef nonnull align 8 dereferenceable(96) %16, i32 noundef 1)
  %53 = load ptr, ptr %52, align 8
  %54 = getelementptr inbounds ptr, ptr %53, i64 15
  %55 = load ptr, ptr %54, align 8
  %56 = call noundef i32 %55(ptr noundef nonnull align 8 dereferenceable(8) %52)
  %57 = call noundef ptr @_ZNK21compareAndSwapN_0Node10opnd_arrayEj(ptr noundef nonnull align 8 dereferenceable(96) %16, i32 noundef 1)
  %58 = load ptr, ptr %6, align 8
  %59 = load i32, ptr %8, align 4
  %60 = load ptr, ptr %57, align 8
  %61 = getelementptr inbounds ptr, ptr %60, i64 16
  %62 = load ptr, ptr %61, align 8
  %63 = call noundef i32 %62(ptr noundef nonnull align 8 dereferenceable(8) %57, ptr noundef %58, ptr noundef %16, i32 noundef %59)
  %64 = call noundef ptr @_ZNK21compareAndSwapN_0Node10opnd_arrayEj(ptr noundef nonnull align 8 dereferenceable(96) %16, i32 noundef 1)
  %65 = load ptr, ptr %64, align 8
  %66 = getelementptr inbounds ptr, ptr %65, i64 17
  %67 = load ptr, ptr %66, align 8
  %68 = call noundef i32 %67(ptr noundef nonnull align 8 dereferenceable(8) %64)
  call void @_ZN7Address8make_rawEiiiiN9relocInfo9relocTypeE(ptr dead_on_unwind writable sret(%class.Address) align 8 %12, i32 noundef %44, i32 noundef %51, i32 noundef %56, i32 noundef %63, i32 noundef %68)
  %69 = getelementptr inbounds %class.Register, ptr %11, i32 0, i32 0
  %70 = load i32, ptr %69, align 4
  call void @_ZN9Assembler8cmpxchglE8Register7Address(ptr noundef nonnull align 8 dereferenceable(40) %32, i32 %70, ptr noundef %12)
  %71 = load ptr, ptr %5, align 8
  %72 = call noundef ptr @_ZNK21compareAndSwapN_0Node10opnd_arrayEj(ptr noundef nonnull align 8 dereferenceable(96) %16, i32 noundef 0)
  %73 = load ptr, ptr %6, align 8
  %74 = call i32 @_ZNK8MachOper11as_RegisterEP13PhaseRegAllocPK4Node(ptr noundef nonnull align 8 dereferenceable(8) %72, ptr noundef %73, ptr noundef %16)
  %75 = getelementptr inbounds %class.Register, ptr %13, i32 0, i32 0
  store i32 %74, ptr %75, align 4
  %76 = getelementptr inbounds %class.Register, ptr %13, i32 0, i32 0
  %77 = load i32, ptr %76, align 4
  call void @_ZN9Assembler4setbENS_9ConditionE8Register(ptr noundef nonnull align 8 dereferenceable(40) %71, i32 noundef 4, i32 %77)
  %78 = load ptr, ptr %5, align 8
  %79 = call noundef ptr @_ZNK21compareAndSwapN_0Node10opnd_arrayEj(ptr noundef nonnull align 8 dereferenceable(96) %16, i32 noundef 0)
  %80 = load ptr, ptr %6, align 8
  %81 = call i32 @_ZNK8MachOper11as_RegisterEP13PhaseRegAllocPK4Node(ptr noundef nonnull align 8 dereferenceable(8) %79, ptr noundef %80, ptr noundef %16)
  %82 = getelementptr inbounds %class.Register, ptr %14, i32 0, i32 0
  store i32 %81, ptr %82, align 4
  %83 = call noundef ptr @_ZNK21compareAndSwapN_0Node10opnd_arrayEj(ptr noundef nonnull align 8 dereferenceable(96) %16, i32 noundef 0)
  %84 = load ptr, ptr %6, align 8
  %85 = call i32 @_ZNK8MachOper11as_RegisterEP13PhaseRegAllocPK4Node(ptr noundef nonnull align 8 dereferenceable(8) %83, ptr noundef %84, ptr noundef %16)
  %86 = getelementptr inbounds %class.Register, ptr %15, i32 0, i32 0
  store i32 %85, ptr %86, align 4
  %87 = getelementptr inbounds %class.Register, ptr %14, i32 0, i32 0
  %88 = load i32, ptr %87, align 4
  %89 = getelementptr inbounds %class.Register, ptr %15, i32 0, i32 0
  %90 = load i32, ptr %89, align 4
  call void @_ZN9Assembler6movzblE8RegisterS0_(ptr noundef nonnull align 8 dereferenceable(40) %78, i32 %88, i32 %90)
  ret void
}