; Function Attrs: mustprogress nounwind uwtable
define hidden void @_ZNK21compareAndSwapN_0Node4emitEP17C2_MacroAssemblerP13PhaseRegAlloc(ptr noundef nonnull align 8 dereferenceable(96) %0, ptr noundef %1, ptr noundef %2) unnamed_addr #3 align 2 {
  %4 = alloca %class.Address, align 8
  %5 = getelementptr inbounds i8, ptr %0, i64 64
  %6 = getelementptr inbounds i8, ptr %0, i64 72
  %7 = load ptr, ptr %6, align 8
  %8 = load ptr, ptr %7, align 8
  %9 = getelementptr inbounds i8, ptr %8, i64 8
  %10 = load ptr, ptr %9, align 8
  %11 = tail call noundef i32 %10(ptr noundef nonnull align 8 dereferenceable(8) %7) #23
  %12 = add i32 %11, 2
  %13 = getelementptr inbounds i8, ptr %0, i64 80
  %14 = load ptr, ptr %13, align 8
  %15 = load ptr, ptr %14, align 8
  %16 = getelementptr inbounds i8, ptr %15, i64 8
  %17 = load ptr, ptr %16, align 8
  %18 = tail call noundef i32 %17(ptr noundef nonnull align 8 dereferenceable(8) %14) #23
  %19 = add i32 %12, %18
  tail call void @_ZN9Assembler4lockEv(ptr noundef nonnull align 8 dereferenceable(40) %1) #23
  %20 = getelementptr inbounds i8, ptr %0, i64 88
  %21 = load ptr, ptr %20, align 8
  %22 = load ptr, ptr %21, align 8
  %23 = getelementptr inbounds i8, ptr %22, i64 40
  %24 = load ptr, ptr %23, align 8
  %25 = tail call noundef i32 %24(ptr noundef nonnull align 8 dereferenceable(8) %21, ptr noundef %2, ptr noundef nonnull %0, i32 noundef %19) #23
  %or.cond.i.i = icmp ult i32 %25, 32
  %spec.select.i.i = select i1 %or.cond.i.i, i32 %25, i32 -1
  %26 = load ptr, ptr %6, align 8
  %27 = load ptr, ptr %26, align 8
  %28 = getelementptr inbounds i8, ptr %27, i64 104
  %29 = load ptr, ptr %28, align 8
  %30 = tail call noundef i32 %29(ptr noundef nonnull align 8 dereferenceable(8) %26, ptr noundef %2, ptr noundef nonnull %0, i32 noundef 2) #23
  %31 = load ptr, ptr %6, align 8
  %32 = load ptr, ptr %31, align 8
  %33 = getelementptr inbounds i8, ptr %32, i64 112
  %34 = load ptr, ptr %33, align 8
  %35 = tail call noundef i32 %34(ptr noundef nonnull align 8 dereferenceable(8) %31, ptr noundef %2, ptr noundef nonnull %0, i32 noundef 2) #23
  %36 = load ptr, ptr %6, align 8
  %37 = load ptr, ptr %36, align 8
  %38 = getelementptr inbounds i8, ptr %37, i64 120
  %39 = load ptr, ptr %38, align 8
  %40 = tail call noundef i32 %39(ptr noundef nonnull align 8 dereferenceable(8) %36) #23
  %41 = load ptr, ptr %6, align 8
  %42 = load ptr, ptr %41, align 8
  %43 = getelementptr inbounds i8, ptr %42, i64 128
  %44 = load ptr, ptr %43, align 8
  %45 = tail call noundef i32 %44(ptr noundef nonnull align 8 dereferenceable(8) %41, ptr noundef %2, ptr noundef nonnull %0, i32 noundef 2) #23
  %46 = load ptr, ptr %6, align 8
  %47 = load ptr, ptr %46, align 8
  %48 = getelementptr inbounds i8, ptr %47, i64 136
  %49 = load ptr, ptr %48, align 8
  %50 = tail call noundef i32 %49(ptr noundef nonnull align 8 dereferenceable(8) %46) #23
  call void @_ZN7Address8make_rawEiiiiN9relocInfo9relocTypeE(ptr dead_on_unwind nonnull writable sret(%class.Address) align 8 %4, i32 noundef %30, i32 noundef %35, i32 noundef %40, i32 noundef %45, i32 noundef %50) #23
  call void @_ZN9Assembler8cmpxchglE8Register7Address(ptr noundef nonnull align 8 dereferenceable(40) %1, i32 %spec.select.i.i, ptr noundef nonnull %4) #23
  %51 = load ptr, ptr %5, align 8
  %52 = load ptr, ptr %51, align 8
  %53 = getelementptr inbounds i8, ptr %52, i64 32
  %54 = load ptr, ptr %53, align 8
  %55 = call noundef i32 %54(ptr noundef nonnull align 8 dereferenceable(8) %51, ptr noundef %2, ptr noundef nonnull %0) #23
  %or.cond.i.i20 = icmp ult i32 %55, 32
  %spec.select.i.i21 = select i1 %or.cond.i.i20, i32 %55, i32 -1
  call void @_ZN9Assembler4setbENS_9ConditionE8Register(ptr noundef nonnull align 8 dereferenceable(40) %1, i32 noundef 4, i32 %spec.select.i.i21) #23
  %56 = load ptr, ptr %5, align 8
  %57 = load ptr, ptr %56, align 8
  %58 = getelementptr inbounds i8, ptr %57, i64 32
  %59 = load ptr, ptr %58, align 8
  %60 = call noundef i32 %59(ptr noundef nonnull align 8 dereferenceable(8) %56, ptr noundef %2, ptr noundef nonnull %0) #23
  %or.cond.i.i22 = icmp ult i32 %60, 32
  %spec.select.i.i23 = select i1 %or.cond.i.i22, i32 %60, i32 -1
  %61 = load ptr, ptr %5, align 8
  %62 = load ptr, ptr %61, align 8
  %63 = getelementptr inbounds i8, ptr %62, i64 32
  %64 = load ptr, ptr %63, align 8
  %65 = call noundef i32 %64(ptr noundef nonnull align 8 dereferenceable(8) %61, ptr noundef %2, ptr noundef nonnull %0) #23
  %or.cond.i.i24 = icmp ult i32 %65, 32
  %spec.select.i.i25 = select i1 %or.cond.i.i24, i32 %65, i32 -1
  call void @_ZN9Assembler6movzblE8RegisterS0_(ptr noundef nonnull align 8 dereferenceable(40) %1, i32 %spec.select.i.i23, i32 %spec.select.i.i25) #23
  ret void
}